; Function Attrs: nounwind uwtable
define noundef ptr @Ivy_ObjCreatePo(ptr noundef initializes((56, 72)) %0, ptr noundef %1) local_unnamed_addr #0 {
  %3 = getelementptr inbounds nuw i8, ptr %0, i64 40
  %4 = getelementptr inbounds nuw i8, ptr %0, i64 48
  %5 = load i32, ptr %4, align 8
  %6 = and i32 %5, -1552
  %7 = or disjoint i32 %6, 2
  store i32 %7, ptr %4, align 8
  %8 = getelementptr inbounds nuw i8, ptr %0, i64 56
  store ptr %1, ptr %8, align 8, !tbaa !24
  %9 = getelementptr inbounds nuw i8, ptr %0, i64 64
  store ptr null, ptr %9, align 8, !tbaa !25
  %10 = tail call ptr @Ivy_ObjCreate(ptr noundef %0, ptr noundef nonnull %3)
  ret ptr %10
}